; Function Attrs: mustprogress uwtable
define noundef ptr @_ZNK8LightGBM7Dataset14GetColWiseDataEiiPhPbPPNS_11BinIteratorE(ptr noundef nonnull readonly align 8 captures(none) dereferenceable(864) %0, i32 noundef %1, i32 noundef %2, ptr noundef %3, ptr noundef %4, ptr noundef %5) local_unnamed_addr #3 align 2 {
  %7 = getelementptr inbounds nuw i8, ptr %0, i64 32
  %8 = sext i32 %1 to i64
  %9 = load ptr, ptr %7, align 8, !tbaa !105
  %10 = getelementptr inbounds nuw %"class.std::unique_ptr.74", ptr %9, i64 %8
  %11 = load ptr, ptr %10, align 8, !tbaa !106
  %12 = icmp sgt i32 %2, -1
  %13 = getelementptr inbounds nuw i8, ptr %11, i64 88
  %14 = load i8, ptr %13, align 8, !tbaa !108, !range !95, !noundef !96
  %15 = trunc nuw i8 %14 to i1
  br i1 %12, label %16, label %23

16:                                               ; preds = %6
  br i1 %15, label %18, label %17

17:                                               ; preds = %16
  tail call void (ptr, ...) @_ZN8LightGBM3Log5FatalEPKcz(ptr noundef nonnull @.str.95, ptr noundef nonnull @.str.46, i32 noundef 560)
  br label %18

18:                                               ; preds = %17, %16
  %19 = getelementptr inbounds nuw i8, ptr %11, i64 64
  %20 = zext nneg i32 %2 to i64
  %21 = load ptr, ptr %19, align 8, !tbaa !271
  %22 = getelementptr inbounds nuw %"class.std::unique_ptr.87", ptr %21, i64 %20
  br label %_ZNK8LightGBM12FeatureGroup14GetColWiseDataEiPhPbPPNS_11BinIteratorE.exit

23:                                               ; preds = %6
  br i1 %15, label %24, label %25

24:                                               ; preds = %23
  tail call void (ptr, ...) @_ZN8LightGBM3Log5FatalEPKcz(ptr noundef nonnull @.str.98, ptr noundef nonnull @.str.46, i32 noundef 563)
  br label %25

25:                                               ; preds = %24, %23
  %26 = getelementptr inbounds nuw i8, ptr %11, i64 56
  br label %_ZNK8LightGBM12FeatureGroup14GetColWiseDataEiPhPbPPNS_11BinIteratorE.exit

_ZNK8LightGBM12FeatureGroup14GetColWiseDataEiPhPbPPNS_11BinIteratorE.exit: ; preds = %18, %25
  %.sink13.in.i = phi ptr [ %26, %25 ], [ %22, %18 ]
  %.sink13.i = load ptr, ptr %.sink13.in.i, align 8, !tbaa !167
  %27 = load ptr, ptr %.sink13.i, align 8, !tbaa !99
  %28 = getelementptr inbounds nuw i8, ptr %27, i64 280
  %29 = load ptr, ptr %28, align 8
  %30 = tail call noundef ptr %29(ptr noundef nonnull align 8 dereferenceable(8) %.sink13.i, ptr noundef %3, ptr noundef %4, ptr noundef %5)
  ret ptr %30
}